target datalayout = "e-m:e-p270:32:32-p271:32:32-p272:64:64-i64:64-i128:128-f80:128-n8:16:32:64-S128"
target triple = "x86_64-pc-linux-gnu"

%struct.expert_field = type { i32, i32 }

@hf_nfapi_delta_pucch_shift = internal global i32 0, align 4
@ei_invalid_range = internal global %struct.expert_field zeroinitializer, align 4
@.str.1770 = private unnamed_addr constant [33 x i8] c"Invalid delta pucch shift [1..3]\00", align 1

; Function Attrs: nounwind uwtable
define internal void @dissect_pucch_delta_pucch_shift_value(ptr noundef %0, ptr noundef %1) #0 {
  %3 = alloca ptr, align 8
  %4 = alloca ptr, align 8
  %5 = alloca i32, align 4
  %6 = alloca ptr, align 8
  store ptr %0, ptr %3, align 8
  store ptr %1, ptr %4, align 8
  %7 = load ptr, ptr %3, align 8
  %8 = load i32, ptr @hf_nfapi_delta_pucch_shift, align 4
  %9 = call ptr @ptvcursor_add_ret_uint(ptr noundef %7, i32 noundef %8, i32 noundef 2, i32 noundef 0, ptr noundef %5)
  store ptr %9, ptr %6, align 8
  %10 = load i32, ptr %5, align 4
  %11 = icmp uge i32 %10, 1
  br i1 %11, label %12, label %15

12:                                               ; preds = %2
  %13 = load i32, ptr %5, align 4
  %14 = icmp ule i32 %13, 3
  br i1 %14, label %19, label %15

15:                                               ; preds = %12, %2
  %16 = load ptr, ptr %4, align 8
  %17 = load ptr, ptr %6, align 8
  %18 = call ptr (ptr, ptr, ptr, ptr, ...) @expert_add_info_format(ptr noundef %16, ptr noundef %17, ptr noundef @ei_invalid_range, ptr noundef @.str.1770)
  br label %19

19:                                               ; preds = %15, %12
  ret void
}